; Function Attrs: mustprogress nounwind uwtable
define dso_local noundef i64 @_ZN4node11StringBytes10hex_encodeEPKcmPcm(ptr nocapture noundef readonly %src, i64 noundef %slen, ptr nocapture noundef writeonly %dst, i64 noundef %dlen) local_unnamed_addr #3 align 2 {
entry:
  %mul = shl i64 %slen, 1
  %cmp.not = icmp ugt i64 %mul, %dlen
  br i1 %cmp.not, label %do.body3, label %for.cond.preheader

for.cond.preheader:                               ; preds = %entry
  %cmp610.not = icmp eq i64 %mul, 0
  br i1 %cmp610.not, label %for.end, label %for.body

do.body3:                                         ; preds = %entry
  tail call void @_ZN4node6AssertERKNS_13AssertionInfoE(ptr noundef nonnull align 8 dereferenceable(24) @_ZZN4node11StringBytes10hex_encodeEPKcmPcmE4args) #19
  tail call void @abort() #20
  unreachable

for.body:                                         ; preds = %for.cond.preheader, %for.body
  %conv13 = phi i64 [ %conv, %for.body ], [ 0, %for.cond.preheader ]
  %k.012 = phi i32 [ %add19, %for.body ], [ 0, %for.cond.preheader ]
  %i.011 = phi i32 [ %add18, %for.body ], [ 0, %for.cond.preheader ]
  %idxprom = zext i32 %i.011 to i64
  %arrayidx = getelementptr inbounds i8, ptr %src, i64 %idxprom
  %0 = load i8, ptr %arrayidx, align 1
  %conv7 = zext i8 %0 to i32
  %shr = lshr i32 %conv7, 4
  %idxprom8 = zext nneg i32 %shr to i64
  %arrayidx9 = getelementptr inbounds [17 x i8], ptr @_ZZN4node11StringBytes10hex_encodeEPKcmPcmE3hex, i64 0, i64 %idxprom8
  %1 = load i8, ptr %arrayidx9, align 1
  %arrayidx11 = getelementptr inbounds i8, ptr %dst, i64 %conv13
  store i8 %1, ptr %arrayidx11, align 1
  %and = and i32 %conv7, 15
  %idxprom13 = zext nneg i32 %and to i64
  %arrayidx14 = getelementptr inbounds [17 x i8], ptr @_ZZN4node11StringBytes10hex_encodeEPKcmPcmE3hex, i64 0, i64 %idxprom13
  %2 = load i8, ptr %arrayidx14, align 1
  %add15 = or disjoint i32 %k.012, 1
  %idxprom16 = zext i32 %add15 to i64
  %arrayidx17 = getelementptr inbounds i8, ptr %dst, i64 %idxprom16
  store i8 %2, ptr %arrayidx17, align 1
  %add18 = add i32 %i.011, 1
  %add19 = add i32 %k.012, 2
  %conv = zext i32 %add19 to i64
  %cmp6 = icmp ugt i64 %mul, %conv
  br i1 %cmp6, label %for.body, label %for.end, !llvm.loop !9

for.end:                                          ; preds = %for.body, %for.cond.preheader
  ret i64 %mul
}